target datalayout = "e-m:e-p270:32:32-p271:32:32-p272:64:64-i64:64-i128:128-f80:128-n8:16:32:64-S128"
target triple = "x86_64-unknown-linux-gnu"

%struct.aiScene = type { i32, ptr, i32, ptr, i32, ptr, i32, ptr, i32, ptr, i32, ptr, i32, ptr, ptr, %struct.aiString, i32, ptr, ptr }
%struct.aiString = type { i32, [1024 x i8] }

@.str.2 = private unnamed_addr constant [26 x i8] c"CalcTangentsProcess begin\00", align 1
@.str.3 = private unnamed_addr constant [60 x i8] c"CalcTangentsProcess finished. Tangents have been calculated\00", align 1
@.str.4 = private unnamed_addr constant [29 x i8] c"CalcTangentsProcess finished\00", align 1

; Function Attrs: mustprogress uwtable
define hidden void @_ZN6Assimp19CalcTangentsProcess7ExecuteEP7aiScene(ptr noundef nonnull align 8 dereferenceable(32) %this, ptr noundef %pScene) unnamed_addr #3 align 2 {
entry:
  %this.addr = alloca ptr, align 8
  %pScene.addr = alloca ptr, align 8
  %bHas = alloca i8, align 1
  %a = alloca i32, align 4
  store ptr %this, ptr %this.addr, align 8
  store ptr %pScene, ptr %pScene.addr, align 8
  %this1 = load ptr, ptr %this.addr, align 8
  %call = call noundef ptr @_ZN6Assimp13DefaultLogger3getEv()
  call void @_ZN6Assimp6Logger5debugEPKc(ptr noundef nonnull align 8 dereferenceable(12) %call, ptr noundef @.str.2)
  store i8 0, ptr %bHas, align 1
  store i32 0, ptr %a, align 4
  br label %for.cond

for.cond:                                         ; preds = %for.inc, %entry
  %0 = load i32, ptr %a, align 4
  %1 = load ptr, ptr %pScene.addr, align 8
  %mNumMeshes = getelementptr inbounds %struct.aiScene, ptr %1, i32 0, i32 2
  %2 = load i32, ptr %mNumMeshes, align 8
  %cmp = icmp ult i32 %0, %2
  br i1 %cmp, label %for.body, label %for.end

for.body:                                         ; preds = %for.cond
  %3 = load ptr, ptr %pScene.addr, align 8
  %mMeshes = getelementptr inbounds %struct.aiScene, ptr %3, i32 0, i32 3
  %4 = load ptr, ptr %mMeshes, align 8
  %5 = load i32, ptr %a, align 4
  %idxprom = zext i32 %5 to i64
  %arrayidx = getelementptr inbounds ptr, ptr %4, i64 %idxprom
  %6 = load ptr, ptr %arrayidx, align 8
  %7 = load i32, ptr %a, align 4
  %call2 = call noundef zeroext i1 @_ZN6Assimp19CalcTangentsProcess11ProcessMeshEP6aiMeshj(ptr noundef nonnull align 8 dereferenceable(32) %this1, ptr noundef %6, i32 noundef %7)
  br i1 %call2, label %if.then, label %if.end

if.then:                                          ; preds = %for.body
  store i8 1, ptr %bHas, align 1
  br label %if.end

if.end:                                           ; preds = %if.then, %for.body
  br label %for.inc

for.inc:                                          ; preds = %if.end
  %8 = load i32, ptr %a, align 4
  %inc = add i32 %8, 1
  store i32 %inc, ptr %a, align 4
  br label %for.cond, !llvm.loop !4

for.end:                                          ; preds = %for.cond
  %9 = load i8, ptr %bHas, align 1
  %tobool = trunc i8 %9 to i1
  br i1 %tobool, label %if.then3, label %if.else

if.then3:                                         ; preds = %for.end
  %call4 = call noundef ptr @_ZN6Assimp13DefaultLogger3getEv()
  call void @_ZN6Assimp6Logger4infoEPKc(ptr noundef nonnull align 8 dereferenceable(12) %call4, ptr noundef @.str.3)
  br label %if.end6

if.else:                                          ; preds = %for.end
  %call5 = call noundef ptr @_ZN6Assimp13DefaultLogger3getEv()
  call void @_ZN6Assimp6Logger5debugEPKc(ptr noundef nonnull align 8 dereferenceable(12) %call5, ptr noundef @.str.4)
  br label %if.end6

if.end6:                                          ; preds = %if.else, %if.then3
  ret void
}